(dp0
S'30'
p1
V\u8d85\u9ad8\u538b\u60ac\u81c2\u5f0f\u6570\u63a7\u6c34\u5207\u5272\u673a
p2
sS'37'
p3
V\u7cbe\u5bc6\u79bb\u5b50\u51cf\u8584\u4eea(691)(\u5e26\u51b7\u53f0)
p4
sS'22'
p5
V\u573a\u53d1\u5c04\u900f\u5c04\u7535\u955c(F20)-143
p6
sS'36'
p7
V\u7cbe\u5bc6\u79bb\u5b50\u51cf\u8584\u4eea(LKY-AB)-2
p8
sS'60'
p9
V\u591a\u529f\u80fd\u6469\u64e6\u78e8\u635f\u8bd5\u9a8c\u673a
p10
sS'82'
p11
V\u7cbe\u5bc6\u79bb\u5b50\u51cf\u8584\u4eea(Model 1050)
p12
sS'62'
p13
V\u7eb3\u7c73\u538b\u75d5\u4eea-464
p14
sS'63'
p15
V\u540c\u6b65\u70ed\u5206\u6790\u4eea
p16
sS'64'
p17
VX\u5c04\u7ebf\u884d\u5c04\u4eea (D8 A)
p18
sS'65'
p19
VX\u5c04\u7ebf\u884d\u5c04\u4eea (18KW)
p20
sS'66'
p21
VX\u5c04\u7ebf\u884d\u5c04\u4eea (3KW)
p22
sS'67'
p23
VX\u5c04\u7ebf\u5e94\u529b\u4eea
p24
sS'68'
p25
VX\u5c04\u7ebf\u4e09\u7ef4\u6210\u50cf\u7cfb\u7edf
p26
sS'69'
p27
V\u7ebf\u6027\u7cbe\u5bc6\u5207\u5272\u673a(Iso Met5000)
p28
sS'80'
p29
V\u9ad8\u771f\u7a7a\u70ed\u5904\u7406\u7cfb\u7edf
p30
sS'81'
p31
V2#\u6570\u63a7\u4f3a\u670d\u4e2d\u8d70\u4e1d\u7ebf\u5207\u5272\u673a
p32
sS'84'
p33
V\u573a\u53d1\u5c04\u626b\u63cf\u7535\u5b50\u663e\u5fae\u955c(SU-70)
p34
sS'23'
p35
V\u7403\u5dee\u6821\u6b63\u900f\u5c04\u7535\u955c(Titan)
p36
sS'24'
p37
V\u9ad8\u5206\u8fa8\u900f\u5c04\u7535\u955c(JEM-2010HR)
p38
sS'25'
p39
V\u9ad8\u5206\u8fa8\u900f\u5c04\u7535\u955c(JEM-2100HR)
p40
sS'26'
p41
V\u900f\u5c04\u7535\u955c(T12)
p42
sS'27'
p43
V\u573a\u53d1\u5c04\u900f\u5c04\u7535\u955c(F20)-172
p44
sS'20'
p45
V\u51b7\u573a\u53d1\u5c04\u67aa\u900f\u5c04\u7535\u955c(HF-2000)
p46
sS'21'
p47
V\u8d85\u9ad8\u5206\u8fa8\u900f\u5c04\u7535\u955c(JEM-2010UHR)
p48
sS'48'
p49
V\u573a\u53d1\u5c04\u626b\u63cf\u7535\u5b50\u663e\u5fae\u955c(SUPRA 55)
p50
sS'49'
p51
V\u843d\u9524\u51b2\u51fb\u8bd5\u9a8c\u673a(Ceast 9350)
p52
sS'46'
p53
V\u626b\u63cf\u7535\u5b50\u663e\u5fae\u955c(FEI Quanta 600 SEM)
p54
sS'47'
p55
V\u573a\u53d1\u5c04\u626b\u63cf\u7535\u5b50\u663e\u5fae\u955c(SUPRA 35)
p56
sS'44'
p57
V\u4e8c\u6b21\u79bb\u5b50\u8d28\u8c31\u4eea
p58
sS'45'
p59
V\u573a\u53d1\u5c04\u626b\u63cf\u7535\u5b50\u663e\u5fae\u955c(450)
p60
sS'42'
p61
V\u573a\u53d1\u5c04\u626b\u63cf\u7535\u5b50\u663e\u5fae\u955c-1
p62
sS'43'
p63
V\u53cc\u675f\u805a\u7126\u79bb\u5b50\u675f\u7cfb\u7edf(Nanolab Helios 650)
p64
sS'40'
p65
V\u53cc\u675f\u805a\u7126\u79bb\u5b50\u675f\u7cfb\u7edf(Nova 200)
p66
sS'41'
p67
V\u573a\u53d1\u5c04\u626b\u63cf\u7535\u5b50\u663e\u5fae\u955c-2
p68
sS'5'
p69
V\u573a\u53d1\u5c04\u900f\u5c04\u7535\u955c(F30)
p70
sS'7'
p71
V\u7cbe\u5bc6\u79bb\u5b50\u51cf\u8584\u4eea(691)
p72
sS'6'
p73
V\u7cbe\u5bc6\u79bb\u5b50\u523b\u8680\u4eea(101) -2
p74
sS'9'
p75
V\u5316\u5b66\u53cc\u55b7\u51cf\u8584\u4eea(Tenupol-5)
p76
sS'8'
p77
V\u7cbe\u5bc6\u79bb\u5b50\u51cf\u8584\u4eea(LKY-AB)-1
p78
sS'18'
p79
V\u9ad8\u5206\u8fa8\u900f\u5c04\u7535\u955c(JEM-2000EXII)
p80
sS'28'
p81
V1#\u6570\u63a7\u4f3a\u670d\u4e2d\u8d70\u4e1d\u7ebf\u5207\u5272\u673a
p82
sS'19'
p83
V\u5206\u6790\u578b\u900f\u5c04\u7535\u955c(JEM-2000FXII)
p84
sS'83'
p85
V\u6fc0\u5149\u5171\u805a\u71263D\u663e\u5fae\u955c-2
p86
sS'34'
p87
V\u91d1\u76f8\u6837\u54c1\u5236\u5907\u7cfb\u7edf
p88
sS'77'
p89
V\u7bb1\u5f0f\u7535\u963b\u7089(SRJX-4-13)
p90
sS'76'
p91
V\u7bb1\u5f0f\u7089(SX2-5-12)
p92
sS'75'
p93
V\u7ba1\u5f0f\u7089\uff08OTL-1100\uff09
p94
sS'74'
p95
V\u7ba1\u5f0f\u7089\uff08OTL-1100\uff09
p96
sS'73'
p97
V\u7eb3\u7c73\u538b\u75d5\u4eea
p98
sS'72'
p99
V\u539f\u5b50\u529b\u663e\u5fae\u955c AFM
p100
sS'71'
p101
V\u53f0\u9636\u4eea
p102
sS'29'
p103
V\u7535\u706b\u82b1\u7ebf\u5207\u5272\u673a
p104
sS'79'
p105
V\u539f\u4f4d\u6d4b\u91cf\u6c14\u6c1b\u7089
p106
sS'78'
p107
V\u9ad8\u6e29\u7ba1\u5f0f\u7089\uff08SKG-14A\uff09
p108
sS'11'
p109
V\u7535\u955c\u6837\u54c1\u9884\u5904\u7406\u53f0(EM TXP)
p110
sS'10'
p111
V\u6837\u54c1\u622a\u9762\u4e09\u79bb\u5b50\u675f\u5207\u5272(EM TIC-3X)
p112
sS'39'
p113
V\u7cbe\u5bc6\u79bb\u5b50\u523b\u8680\u4eea(101) - 3
p114
sS'38'
p115
V\u7cbe\u5bc6\u79bb\u5b50\u523b\u8680\u4eea(101) -1
p116
sS'59'
p117
V\u4e09\u7ef4\u5e94\u53d8\u9ad8\u901f\u6d4b\u91cf\u7cfb\u7edf
p118
sS'58'
p119
V\u7535\u5b50\u4e07\u80fd\u8bd5\u9a8c\u673a(5848)
p120
sS'61'
p121
V\u5168\u81ea\u52a8\u786c\u5ea6\u8ba1
p122
sS'55'
p123
V\u75b2\u52b3\u8bd5\u9a8c\u673a(MTS 810)
p124
sS'54'
p125
V\u7535\u5b50\u62c9\u4f38\u8bd5\u9a8c\u673a(\u5c9b\u6d25AG-X)
p126
sS'57'
p127
V\u8d85\u58f0\u75b2\u52b3\u8bd5\u9a8c\u673a(\u5c9b\u6d25USF 2000)
p128
sS'56'
p129
V\u73af\u5883\u62c9\u626d\u75b2\u52b3\u8bd5\u9a8c\u673a(8874)
p130
sS'51'
p131
V\u9ad8\u6e29\u9ad8\u9891\u75b2\u52b3\u8bd5\u9a8c\u673a(Testronic 100)
p132
sS'50'
p133
V\u9ad8\u6e29\u62c9\u626d\u75b2\u52b3\u8bd5\u9a8c\u673a(8850)
p134
sS'53'
p135
V\u9ad8\u7cbe\u5ea6\u7535\u5b50\u4e07\u80fd\u8bd5\u9a8c\u7cfb\u7edf(8862)
p136
sS'52'
p137
V\u75b2\u52b3\u8bd5\u9a8c\u673a(8801)
p138
sS'33'
p139
V\u79d1\u7814\u7ea7\u5012\u7f6e\u91d1\u76f8\u663e\u5fae\u955c
p140
sS'32'
p141
V\u6fc0\u5149\u5171\u805a\u71263D\u663e\u5fae\u955c-1
p142
sS'12'
p143
V\u8d85\u8584\u5207\u7247\u673a(EM UC6)
p144
sS'31'
p145
VMCGS-3\u6676\u4f53\u751f\u957f\u7cfb\u7edf
p146
s.